target datalayout = "e-m:e-p270:32:32-p271:32:32-p272:64:64-i64:64-i128:128-f80:128-n8:16:32:64-S128"
target triple = "x86_64-pc-linux-gnu"

%class.OopMapForCacheEntry = type { %class.GenerateOopMap, ptr, i32, i32 }
%class.GenerateOopMap = type { ptr, %class.methodHandle, %class.RetTable, i32, i32, i32, i32, i8, %class.Handle, i8, i8, i8, i32, ptr, ptr, i32, i32, ptr, i32, i32, %class.ResourceBitMap, i8, i8, ptr, ptr, i8, i32, ptr, ptr }
%class.methodHandle = type { ptr, ptr }
%class.RetTable = type { ptr }
%class.Handle = type { ptr }
%class.ResourceBitMap = type { %class.GrowableBitMap }
%class.GrowableBitMap = type { %class.BitMap }
%class.BitMap = type { ptr, i64 }
%class.BaseBytecodeStream = type <{ [8 x i8], %class.methodHandle, i32, i32, i32, i32, i8, i8, [6 x i8] }>

; Function Attrs: mustprogress nounwind uwtable
define linkonce_odr hidden noundef i32 @_ZNK18BaseBytecodeStream3bciEv(ptr noundef nonnull align 8 dereferenceable(42) %0) #1 comdat align 2 {
  %2 = alloca ptr, align 8
  store ptr %0, ptr %2, align 8
  %3 = load ptr, ptr %2, align 8
  %4 = getelementptr inbounds %class.BaseBytecodeStream, ptr %3, i32 0, i32 2
  %5 = load i32, ptr %4, align 8
  ret i32 %5
}

; Function Attrs: mustprogress nounwind uwtable
define hidden void @_ZN19OopMapForCacheEntry25fill_stackmap_for_opcodesEP14BytecodeStreamP13CellTypeStateS3_i(ptr noundef nonnull align 8 dereferenceable(192) %0, ptr noundef %1, ptr noundef %2, ptr noundef %3, i32 noundef %4) unnamed_addr #1 align 2 {
  %6 = alloca ptr, align 8
  %7 = alloca ptr, align 8
  %8 = alloca ptr, align 8
  %9 = alloca ptr, align 8
  %10 = alloca i32, align 4
  store ptr %0, ptr %6, align 8
  store ptr %1, ptr %7, align 8
  store ptr %2, ptr %8, align 8
  store ptr %3, ptr %9, align 8
  store i32 %4, ptr %10, align 4
  %11 = load ptr, ptr %6, align 8
  %12 = load ptr, ptr %7, align 8
  %13 = call noundef i32 @_ZNK18BaseBytecodeStream3bciEv(ptr noundef nonnull align 8 dereferenceable(42) %12)
  %14 = getelementptr inbounds %class.OopMapForCacheEntry, ptr %11, i32 0, i32 2
  %15 = load i32, ptr %14, align 8
  %16 = icmp eq i32 %13, %15
  br i1 %16, label %17, label %25

17:                                               ; preds = %5
  %18 = getelementptr inbounds %class.OopMapForCacheEntry, ptr %11, i32 0, i32 1
  %19 = load ptr, ptr %18, align 8
  %20 = load ptr, ptr %8, align 8
  %21 = load ptr, ptr %9, align 8
  %22 = load i32, ptr %10, align 4
  call void @_ZN16OopMapCacheEntry8set_maskEP13CellTypeStateS1_i(ptr noundef nonnull align 8 dereferenceable(64) %19, ptr noundef %20, ptr noundef %21, i32 noundef %22)
  %23 = load i32, ptr %10, align 4
  %24 = getelementptr inbounds %class.OopMapForCacheEntry, ptr %11, i32 0, i32 3
  store i32 %23, ptr %24, align 4
  br label %25

25:                                               ; preds = %17, %5
  ret void
}