; Function Attrs: mustprogress nounwind uwtable
define hidden void @_ZN19OopMapForCacheEntry25fill_stackmap_for_opcodesEP14BytecodeStreamP13CellTypeStateS3_i(ptr nocapture noundef nonnull align 8 dereferenceable(192) %0, ptr nocapture noundef readonly %1, ptr nocapture noundef readonly %2, ptr nocapture noundef readonly %3, i32 noundef %4) unnamed_addr #0 align 2 {
  %6 = getelementptr inbounds i8, ptr %1, i64 24
  %7 = load i32, ptr %6, align 8
  %8 = getelementptr inbounds i8, ptr %0, i64 184
  %9 = load i32, ptr %8, align 8
  %10 = icmp eq i32 %7, %9
  br i1 %10, label %11, label %15

11:                                               ; preds = %5
  %12 = getelementptr inbounds i8, ptr %0, i64 176
  %13 = load ptr, ptr %12, align 8
  tail call void @_ZN16OopMapCacheEntry8set_maskEP13CellTypeStateS1_i(ptr noundef nonnull align 8 dereferenceable(64) %13, ptr noundef %2, ptr noundef %3, i32 noundef %4)
  %14 = getelementptr inbounds i8, ptr %0, i64 188
  store i32 %4, ptr %14, align 4
  br label %15

15:                                               ; preds = %11, %5
  ret void
}